target datalayout = "e-m:e-p270:32:32-p271:32:32-p272:64:64-i64:64-i128:128-f80:128-n8:16:32:64-S128"
target triple = "x86_64-pc-linux-gnu"

%struct.dictType = type { ptr, ptr, ptr, ptr, ptr, ptr, ptr, ptr, ptr, ptr, ptr, i8, ptr, ptr, ptr }
%struct.dict = type { ptr, [2 x ptr], [2 x i64], i64, i16, [2 x i8], i16, [0 x ptr] }
%struct.dictEntry = type { ptr, %union.anon, ptr }
%union.anon = type { ptr }
%struct.dictEntryNoValue = type { ptr, ptr }

@.str.1 = private unnamed_addr constant [7 x i8] c"dict.c\00", align 1
@.str.9 = private unnamed_addr constant [18 x i8] c"entryHasValue(de)\00", align 1

; Function Attrs: inlinehint nounwind uwtable
define internal i32 @entryIsNormal(ptr noundef %0) #11 {
  %2 = alloca ptr, align 8
  store ptr %0, ptr %2, align 8, !tbaa !36
  %3 = load ptr, ptr %2, align 8, !tbaa !36
  %4 = ptrtoint ptr %3 to i64
  %5 = and i64 %4, 7
  %6 = icmp eq i64 %5, 0
  %7 = zext i1 %6 to i32
  ret i32 %7
}

; Function Attrs: inlinehint nounwind uwtable
define internal i32 @entryHasValue(ptr noundef %0) #11 {
  %2 = alloca ptr, align 8
  store ptr %0, ptr %2, align 8, !tbaa !36
  %3 = load ptr, ptr %2, align 8, !tbaa !36
  %4 = call i32 @entryIsNormal(ptr noundef %3)
  ret i32 %4
}

; Function Attrs: inlinehint nounwind uwtable
define internal ptr @decodeEntryNoValue(ptr noundef %0) #11 {
  %2 = alloca ptr, align 8
  store ptr %0, ptr %2, align 8, !tbaa !36
  %3 = load ptr, ptr %2, align 8, !tbaa !36
  %4 = call ptr @decodeMaskedPtr(ptr noundef %3)
  ret ptr %4
}

; Function Attrs: inlinehint nounwind uwtable
define internal i32 @entryIsNoValue(ptr noundef %0) #11 {
  %2 = alloca ptr, align 8
  store ptr %0, ptr %2, align 8, !tbaa !36
  %3 = load ptr, ptr %2, align 8, !tbaa !36
  %4 = ptrtoint ptr %3 to i64
  %5 = and i64 %4, 7
  %6 = icmp eq i64 %5, 4
  %7 = zext i1 %6 to i32
  ret i32 %7
}

; Function Attrs: nounwind uwtable
define internal void @_dictReset(ptr noundef %0, i32 noundef %1) #0 {
  %3 = alloca ptr, align 8
  %4 = alloca i32, align 4
  store ptr %0, ptr %3, align 8, !tbaa !18
  store i32 %1, ptr %4, align 4, !tbaa !29
  %5 = load ptr, ptr %3, align 8, !tbaa !18
  %6 = getelementptr inbounds nuw %struct.dict, ptr %5, i32 0, i32 1
  %7 = load i32, ptr %4, align 4, !tbaa !29
  %8 = sext i32 %7 to i64
  %9 = getelementptr inbounds [2 x ptr], ptr %6, i64 0, i64 %8
  store ptr null, ptr %9, align 8, !tbaa !30
  %10 = load ptr, ptr %3, align 8, !tbaa !18
  %11 = getelementptr inbounds nuw %struct.dict, ptr %10, i32 0, i32 5
  %12 = load i32, ptr %4, align 4, !tbaa !29
  %13 = sext i32 %12 to i64
  %14 = getelementptr inbounds [2 x i8], ptr %11, i64 0, i64 %13
  store i8 -1, ptr %14, align 1, !tbaa !25
  %15 = load ptr, ptr %3, align 8, !tbaa !18
  %16 = getelementptr inbounds nuw %struct.dict, ptr %15, i32 0, i32 2
  %17 = load i32, ptr %4, align 4, !tbaa !29
  %18 = sext i32 %17 to i64
  %19 = getelementptr inbounds [2 x i64], ptr %16, i64 0, i64 %18
  store i64 0, ptr %19, align 8, !tbaa !11
  ret void
}

; Function Attrs: inlinehint nounwind uwtable
define internal ptr @decodeMaskedPtr(ptr noundef %0) #11 {
  %2 = alloca ptr, align 8
  store ptr %0, ptr %2, align 8, !tbaa !36
  %3 = load ptr, ptr %2, align 8, !tbaa !36
  %4 = ptrtoint ptr %3 to i64
  %5 = and i64 %4, -8
  %6 = inttoptr i64 %5 to ptr
  ret ptr %6
}

; Function Attrs: inlinehint nounwind uwtable
define internal i32 @entryIsKey(ptr noundef %0) #11 {
  %2 = alloca ptr, align 8
  store ptr %0, ptr %2, align 8, !tbaa !36
  %3 = load ptr, ptr %2, align 8, !tbaa !36
  %4 = ptrtoint ptr %3 to i64
  %5 = and i64 %4, 3
  %6 = trunc i64 %5 to i32
  ret i32 %6
}

; Function Attrs: nounwind uwtable
define dso_local ptr @dictGetVal(ptr noundef %0) #0 {
  %2 = alloca ptr, align 8
  store ptr %0, ptr %2, align 8, !tbaa !36
  %3 = load ptr, ptr %2, align 8, !tbaa !36
  %4 = call i32 @entryHasValue(ptr noundef %3)
  %5 = icmp ne i32 %4, 0
  %6 = xor i1 %5, true
  %7 = xor i1 %6, true
  %8 = zext i1 %7 to i32
  %9 = sext i32 %8 to i64
  %10 = call i64 @llvm.expect.i64(i64 %9, i64 1)
  %11 = icmp ne i64 %10, 0
  br i1 %11, label %12, label %13

12:                                               ; preds = %1
  br label %15

13:                                               ; preds = %1
  call void @_serverAssert(ptr noundef @.str.9, ptr noundef @.str.1, i32 noundef 927)
  call void @abort() #17
  unreachable

14:                                               ; No predecessors!
  br label %15

15:                                               ; preds = %14, %12
  %16 = load ptr, ptr %2, align 8, !tbaa !36
  %17 = getelementptr inbounds nuw %struct.dictEntry, ptr %16, i32 0, i32 1
  %18 = load ptr, ptr %17, align 8, !tbaa !25
  ret ptr %18
}

; Function Attrs: nounwind uwtable
define dso_local ptr @dictGetKey(ptr noundef %0) #0 {
  %2 = alloca ptr, align 8
  %3 = alloca ptr, align 8
  store ptr %0, ptr %3, align 8, !tbaa !36
  %4 = load ptr, ptr %3, align 8, !tbaa !36
  %5 = ptrtoint ptr %4 to i64
  %6 = and i64 %5, 1
  %7 = icmp ne i64 %6, 0
  br i1 %7, label %8, label %10

8:                                                ; preds = %1
  %9 = load ptr, ptr %3, align 8, !tbaa !36
  store ptr %9, ptr %2, align 8
  br label %31

10:                                               ; preds = %1
  %11 = load ptr, ptr %3, align 8, !tbaa !36
  %12 = ptrtoint ptr %11 to i64
  %13 = and i64 %12, 2
  %14 = icmp ne i64 %13, 0
  br i1 %14, label %15, label %18

15:                                               ; preds = %10
  %16 = load ptr, ptr %3, align 8, !tbaa !36
  %17 = call ptr @decodeMaskedPtr(ptr noundef %16)
  store ptr %17, ptr %2, align 8
  br label %31

18:                                               ; preds = %10
  %19 = load ptr, ptr %3, align 8, !tbaa !36
  %20 = call i32 @entryIsNoValue(ptr noundef %19)
  %21 = icmp ne i32 %20, 0
  br i1 %21, label %22, label %27

22:                                               ; preds = %18
  %23 = load ptr, ptr %3, align 8, !tbaa !36
  %24 = call ptr @decodeEntryNoValue(ptr noundef %23)
  %25 = getelementptr inbounds nuw %struct.dictEntryNoValue, ptr %24, i32 0, i32 0
  %26 = load ptr, ptr %25, align 8, !tbaa !54
  store ptr %26, ptr %2, align 8
  br label %31

27:                                               ; preds = %18
  %28 = load ptr, ptr %3, align 8, !tbaa !36
  %29 = getelementptr inbounds nuw %struct.dictEntry, ptr %28, i32 0, i32 0
  %30 = load ptr, ptr %29, align 8, !tbaa !51
  store ptr %30, ptr %2, align 8
  br label %31

31:                                               ; preds = %27, %22, %15, %8
  %32 = load ptr, ptr %2, align 8
  ret ptr %32
}

; Function Attrs: nounwind uwtable
define internal ptr @dictGetNext(ptr noundef %0) #0 {
  %2 = alloca ptr, align 8
  %3 = alloca ptr, align 8
  store ptr %0, ptr %3, align 8, !tbaa !36
  %4 = load ptr, ptr %3, align 8, !tbaa !36
  %5 = call i32 @entryIsKey(ptr noundef %4)
  %6 = icmp ne i32 %5, 0
  br i1 %6, label %7, label %8

7:                                                ; preds = %1
  store ptr null, ptr %2, align 8
  br label %21

8:                                                ; preds = %1
  %9 = load ptr, ptr %3, align 8, !tbaa !36
  %10 = call i32 @entryIsNoValue(ptr noundef %9)
  %11 = icmp ne i32 %10, 0
  br i1 %11, label %12, label %17

12:                                               ; preds = %8
  %13 = load ptr, ptr %3, align 8, !tbaa !36
  %14 = call ptr @decodeEntryNoValue(ptr noundef %13)
  %15 = getelementptr inbounds nuw %struct.dictEntryNoValue, ptr %14, i32 0, i32 1
  %16 = load ptr, ptr %15, align 8, !tbaa !56
  store ptr %16, ptr %2, align 8
  br label %21

17:                                               ; preds = %8
  %18 = load ptr, ptr %3, align 8, !tbaa !36
  %19 = getelementptr inbounds nuw %struct.dictEntry, ptr %18, i32 0, i32 2
  %20 = load ptr, ptr %19, align 8, !tbaa !53
  store ptr %20, ptr %2, align 8
  br label %21

21:                                               ; preds = %17, %12, %7
  %22 = load ptr, ptr %2, align 8
  ret ptr %22
}

; Function Attrs: nounwind uwtable
define dso_local i32 @_dictClear(ptr noundef %0, i32 noundef %1, ptr noundef %2) #0 {
  %4 = alloca ptr, align 8
  %5 = alloca i32, align 4
  %6 = alloca ptr, align 8
  %7 = alloca i64, align 8
  %8 = alloca ptr, align 8
  %9 = alloca ptr, align 8
  %10 = alloca i32, align 4
  store ptr %0, ptr %4, align 8, !tbaa !18
  store i32 %1, ptr %5, align 4, !tbaa !29
  store ptr %2, ptr %6, align 8, !tbaa !10
  call void @llvm.lifetime.start.p0(i64 8, ptr %7) #14
  store i64 0, ptr %7, align 8, !tbaa !11
  br label %11

11:                                               ; preds = %131, %3
  %12 = load i64, ptr %7, align 8, !tbaa !11
  %13 = load ptr, ptr %4, align 8, !tbaa !18
  %14 = getelementptr inbounds nuw %struct.dict, ptr %13, i32 0, i32 5
  %15 = load i32, ptr %5, align 4, !tbaa !29
  %16 = sext i32 %15 to i64
  %17 = getelementptr inbounds [2 x i8], ptr %14, i64 0, i64 %16
  %18 = load i8, ptr %17, align 1, !tbaa !25
  %19 = sext i8 %18 to i32
  %20 = icmp eq i32 %19, -1
  br i1 %20, label %21, label %22

21:                                               ; preds = %11
  br label %32

22:                                               ; preds = %11
  %23 = load ptr, ptr %4, align 8, !tbaa !18
  %24 = getelementptr inbounds nuw %struct.dict, ptr %23, i32 0, i32 5
  %25 = load i32, ptr %5, align 4, !tbaa !29
  %26 = sext i32 %25 to i64
  %27 = getelementptr inbounds [2 x i8], ptr %24, i64 0, i64 %26
  %28 = load i8, ptr %27, align 1, !tbaa !25
  %29 = sext i8 %28 to i32
  %30 = zext i32 %29 to i64
  %31 = shl i64 1, %30
  br label %32

32:                                               ; preds = %22, %21
  %33 = phi i64 [ 0, %21 ], [ %31, %22 ]
  %34 = icmp ult i64 %12, %33
  br i1 %34, label %35, label %43

35:                                               ; preds = %32
  %36 = load ptr, ptr %4, align 8, !tbaa !18
  %37 = getelementptr inbounds nuw %struct.dict, ptr %36, i32 0, i32 2
  %38 = load i32, ptr %5, align 4, !tbaa !29
  %39 = sext i32 %38 to i64
  %40 = getelementptr inbounds [2 x i64], ptr %37, i64 0, i64 %39
  %41 = load i64, ptr %40, align 8, !tbaa !11
  %42 = icmp ugt i64 %41, 0
  br label %43

43:                                               ; preds = %35, %32
  %44 = phi i1 [ false, %32 ], [ %42, %35 ]
  br i1 %44, label %45, label %134

45:                                               ; preds = %43
  call void @llvm.lifetime.start.p0(i64 8, ptr %8) #14
  call void @llvm.lifetime.start.p0(i64 8, ptr %9) #14
  %46 = load ptr, ptr %6, align 8, !tbaa !10
  %47 = icmp ne ptr %46, null
  br i1 %47, label %48, label %58

48:                                               ; preds = %45
  %49 = load i64, ptr %7, align 8, !tbaa !11
  %50 = icmp ne i64 %49, 0
  br i1 %50, label %51, label %58

51:                                               ; preds = %48
  %52 = load i64, ptr %7, align 8, !tbaa !11
  %53 = and i64 %52, 65535
  %54 = icmp eq i64 %53, 0
  br i1 %54, label %55, label %58

55:                                               ; preds = %51
  %56 = load ptr, ptr %6, align 8, !tbaa !10
  %57 = load ptr, ptr %4, align 8, !tbaa !18
  call void %56(ptr noundef %57)
  br label %58

58:                                               ; preds = %55, %51, %48, %45
  %59 = load ptr, ptr %4, align 8, !tbaa !18
  %60 = getelementptr inbounds nuw %struct.dict, ptr %59, i32 0, i32 1
  %61 = load i32, ptr %5, align 4, !tbaa !29
  %62 = sext i32 %61 to i64
  %63 = getelementptr inbounds [2 x ptr], ptr %60, i64 0, i64 %62
  %64 = load ptr, ptr %63, align 8, !tbaa !30
  %65 = load i64, ptr %7, align 8, !tbaa !11
  %66 = getelementptr inbounds nuw ptr, ptr %64, i64 %65
  %67 = load ptr, ptr %66, align 8, !tbaa !36
  store ptr %67, ptr %8, align 8, !tbaa !36
  %68 = icmp eq ptr %67, null
  br i1 %68, label %69, label %70

69:                                               ; preds = %58
  store i32 4, ptr %10, align 4
  br label %128

70:                                               ; preds = %58
  br label %71

71:                                               ; preds = %118, %70
  %72 = load ptr, ptr %8, align 8, !tbaa !36
  %73 = icmp ne ptr %72, null
  br i1 %73, label %74, label %127

74:                                               ; preds = %71
  %75 = load ptr, ptr %8, align 8, !tbaa !36
  %76 = call ptr @dictGetNext(ptr noundef %75)
  store ptr %76, ptr %9, align 8, !tbaa !36
  %77 = load ptr, ptr %4, align 8, !tbaa !18
  %78 = getelementptr inbounds nuw %struct.dict, ptr %77, i32 0, i32 0
  %79 = load ptr, ptr %78, align 8, !tbaa !13
  %80 = getelementptr inbounds nuw %struct.dictType, ptr %79, i32 0, i32 4
  %81 = load ptr, ptr %80, align 8, !tbaa !60
  %82 = icmp ne ptr %81, null
  br i1 %82, label %83, label %92

83:                                               ; preds = %74
  %84 = load ptr, ptr %4, align 8, !tbaa !18
  %85 = getelementptr inbounds nuw %struct.dict, ptr %84, i32 0, i32 0
  %86 = load ptr, ptr %85, align 8, !tbaa !13
  %87 = getelementptr inbounds nuw %struct.dictType, ptr %86, i32 0, i32 4
  %88 = load ptr, ptr %87, align 8, !tbaa !60
  %89 = load ptr, ptr %4, align 8, !tbaa !18
  %90 = load ptr, ptr %8, align 8, !tbaa !36
  %91 = call ptr @dictGetKey(ptr noundef %90)
  call void %88(ptr noundef %89, ptr noundef %91)
  br label %92

92:                                               ; preds = %83, %74
  br label %93

93:                                               ; preds = %92
  %94 = load ptr, ptr %4, align 8, !tbaa !18
  %95 = getelementptr inbounds nuw %struct.dict, ptr %94, i32 0, i32 0
  %96 = load ptr, ptr %95, align 8, !tbaa !13
  %97 = getelementptr inbounds nuw %struct.dictType, ptr %96, i32 0, i32 5
  %98 = load ptr, ptr %97, align 8, !tbaa !57
  %99 = icmp ne ptr %98, null
  br i1 %99, label %100, label %109

100:                                              ; preds = %93
  %101 = load ptr, ptr %4, align 8, !tbaa !18
  %102 = getelementptr inbounds nuw %struct.dict, ptr %101, i32 0, i32 0
  %103 = load ptr, ptr %102, align 8, !tbaa !13
  %104 = getelementptr inbounds nuw %struct.dictType, ptr %103, i32 0, i32 5
  %105 = load ptr, ptr %104, align 8, !tbaa !57
  %106 = load ptr, ptr %4, align 8, !tbaa !18
  %107 = load ptr, ptr %8, align 8, !tbaa !36
  %108 = call ptr @dictGetVal(ptr noundef %107)
  call void %105(ptr noundef %106, ptr noundef %108)
  br label %109

109:                                              ; preds = %100, %93
  br label %110

110:                                              ; preds = %109
  br label %111

111:                                              ; preds = %110
  %112 = load ptr, ptr %8, align 8, !tbaa !36
  %113 = call i32 @entryIsKey(ptr noundef %112)
  %114 = icmp ne i32 %113, 0
  br i1 %114, label %118, label %115

115:                                              ; preds = %111
  %116 = load ptr, ptr %8, align 8, !tbaa !36
  %117 = call ptr @decodeMaskedPtr(ptr noundef %116)
  call void @zfree(ptr noundef %117)
  br label %118

118:                                              ; preds = %115, %111
  %119 = load ptr, ptr %4, align 8, !tbaa !18
  %120 = getelementptr inbounds nuw %struct.dict, ptr %119, i32 0, i32 2
  %121 = load i32, ptr %5, align 4, !tbaa !29
  %122 = sext i32 %121 to i64
  %123 = getelementptr inbounds [2 x i64], ptr %120, i64 0, i64 %122
  %124 = load i64, ptr %123, align 8, !tbaa !11
  %125 = add i64 %124, -1
  store i64 %125, ptr %123, align 8, !tbaa !11
  %126 = load ptr, ptr %9, align 8, !tbaa !36
  store ptr %126, ptr %8, align 8, !tbaa !36
  br label %71, !llvm.loop !61

127:                                              ; preds = %71
  store i32 0, ptr %10, align 4
  br label %128

128:                                              ; preds = %127, %69
  call void @llvm.lifetime.end.p0(i64 8, ptr %9) #14
  call void @llvm.lifetime.end.p0(i64 8, ptr %8) #14
  %129 = load i32, ptr %10, align 4
  switch i32 %129, label %143 [
    i32 0, label %130
    i32 4, label %131
  ]

130:                                              ; preds = %128
  br label %131

131:                                              ; preds = %130, %128
  %132 = load i64, ptr %7, align 8, !tbaa !11
  %133 = add i64 %132, 1
  store i64 %133, ptr %7, align 8, !tbaa !11
  br label %11, !llvm.loop !62

134:                                              ; preds = %43
  %135 = load ptr, ptr %4, align 8, !tbaa !18
  %136 = getelementptr inbounds nuw %struct.dict, ptr %135, i32 0, i32 1
  %137 = load i32, ptr %5, align 4, !tbaa !29
  %138 = sext i32 %137 to i64
  %139 = getelementptr inbounds [2 x ptr], ptr %136, i64 0, i64 %138
  %140 = load ptr, ptr %139, align 8, !tbaa !30
  call void @zfree(ptr noundef %140)
  %141 = load ptr, ptr %4, align 8, !tbaa !18
  %142 = load i32, ptr %5, align 4, !tbaa !29
  call void @_dictReset(ptr noundef %141, i32 noundef %142)
  store i32 1, ptr %10, align 4
  call void @llvm.lifetime.end.p0(i64 8, ptr %7) #14
  ret i32 0

143:                                              ; preds = %128
  unreachable
}