; Function Attrs: nounwind uwtable
define dso_local noundef i32 @_dictClear(ptr noundef %0, i32 noundef %1, ptr noundef readonly captures(address_is_null) %2) local_unnamed_addr #3 {
  %4 = getelementptr inbounds nuw i8, ptr %0, i64 50
  %5 = sext i32 %1 to i64
  %6 = getelementptr inbounds [2 x i8], ptr %4, i64 0, i64 %5
  %7 = load i8, ptr %6, align 1, !tbaa !13
  %.not63 = icmp eq i8 %7, -1
  br i1 %.not63, label %.critedge, label %.lr.ph

.lr.ph:                                           ; preds = %3
  %8 = getelementptr inbounds nuw i8, ptr %0, i64 24
  %9 = getelementptr inbounds [2 x i64], ptr %8, i64 0, i64 %5
  %10 = icmp ne ptr %2, null
  %11 = getelementptr inbounds nuw i8, ptr %0, i64 8
  %12 = getelementptr inbounds [2 x ptr], ptr %11, i64 0, i64 %5
  br label %13

13:                                               ; preds = %.lr.ph, %.loopexit
  %.056 = phi i64 [ 0, %.lr.ph ], [ %71, %.loopexit ]
  %14 = load i64, ptr %9, align 8, !tbaa !14
  %.not = icmp eq i64 %14, 0
  br i1 %.not, label %.critedge, label %15

15:                                               ; preds = %13
  %16 = icmp ne i64 %.056, 0
  %or.cond = select i1 %10, i1 %16, i1 false
  %17 = and i64 %.056, 65535
  %18 = icmp eq i64 %17, 0
  %or.cond46 = and i1 %or.cond, %18
  br i1 %or.cond46, label %19, label %20

19:                                               ; preds = %15
  tail call void %2(ptr noundef nonnull %0) #25
  br label %20

20:                                               ; preds = %19, %15
  %21 = load ptr, ptr %12, align 8, !tbaa !11
  %22 = getelementptr inbounds nuw ptr, ptr %21, i64 %.056
  %23 = load ptr, ptr %22, align 8, !tbaa !31
  %24 = icmp eq ptr %23, null
  br i1 %24, label %.loopexit, label %.preheader

.preheader:                                       ; preds = %20, %68
  %.03553 = phi ptr [ %.0.i, %68 ], [ %23, %20 ]
  %25 = ptrtoint ptr %.03553 to i64
  %26 = and i64 %25, 3
  %.not.i = icmp eq i64 %26, 0
  br i1 %.not.i, label %27, label %dictGetNext.exit

27:                                               ; preds = %.preheader
  %28 = and i64 %25, 4
  %.not5.i = icmp eq i64 %28, 0
  br i1 %.not5.i, label %34, label %29

29:                                               ; preds = %27
  %30 = and i64 %25, -8
  %31 = inttoptr i64 %30 to ptr
  %32 = getelementptr inbounds nuw i8, ptr %31, i64 8
  %33 = load ptr, ptr %32, align 8, !tbaa !35
  br label %dictGetNext.exit

34:                                               ; preds = %27
  %35 = getelementptr inbounds nuw i8, ptr %.03553, i64 16
  %36 = load ptr, ptr %35, align 8, !tbaa !37
  br label %dictGetNext.exit

dictGetNext.exit:                                 ; preds = %.preheader, %29, %34
  %.0.i = phi ptr [ %33, %29 ], [ %36, %34 ], [ null, %.preheader ]
  %37 = load ptr, ptr %0, align 8, !tbaa !16
  %38 = getelementptr inbounds nuw i8, ptr %37, i64 32
  %39 = load ptr, ptr %38, align 8, !tbaa !56
  %.not42 = icmp eq ptr %39, null
  br i1 %.not42, label %55, label %40

40:                                               ; preds = %dictGetNext.exit
  %41 = and i64 %25, 1
  %.not.i47 = icmp eq i64 %41, 0
  br i1 %.not.i47, label %42, label %dictGetKey.exit

42:                                               ; preds = %40
  %43 = and i64 %25, 2
  %.not8.i = icmp eq i64 %43, 0
  br i1 %.not8.i, label %47, label %44

44:                                               ; preds = %42
  %45 = and i64 %25, -8
  %46 = inttoptr i64 %45 to ptr
  br label %dictGetKey.exit

47:                                               ; preds = %42
  %48 = and i64 %25, 4
  %.not9.i = icmp eq i64 %48, 0
  br i1 %.not9.i, label %53, label %49

49:                                               ; preds = %47
  %50 = and i64 %25, -8
  %51 = inttoptr i64 %50 to ptr
  %52 = load ptr, ptr %51, align 8, !tbaa !39
  br label %dictGetKey.exit

53:                                               ; preds = %47
  %54 = load ptr, ptr %.03553, align 8, !tbaa !40
  br label %dictGetKey.exit

dictGetKey.exit:                                  ; preds = %40, %44, %49, %53
  %.0.i48 = phi ptr [ %46, %44 ], [ %52, %49 ], [ %54, %53 ], [ %.03553, %40 ]
  tail call void %39(ptr noundef nonnull %0, ptr noundef %.0.i48) #25
  %.pre = load ptr, ptr %0, align 8, !tbaa !16
  br label %55

55:                                               ; preds = %dictGetNext.exit, %dictGetKey.exit
  %56 = phi ptr [ %37, %dictGetNext.exit ], [ %.pre, %dictGetKey.exit ]
  %57 = getelementptr inbounds nuw i8, ptr %56, i64 40
  %58 = load ptr, ptr %57, align 8, !tbaa !55
  %.not43 = icmp eq ptr %58, null
  br i1 %.not43, label %64, label %59

59:                                               ; preds = %55
  %60 = and i64 %25, 7
  %.not.i49 = icmp eq i64 %60, 0
  br i1 %.not.i49, label %dictGetVal.exit, label %61, !prof !25

61:                                               ; preds = %59
  tail call void @_serverAssert(ptr noundef nonnull @.str.9, ptr noundef nonnull @.str.1, i32 noundef 927) #25
  tail call void @abort() #27
  unreachable

dictGetVal.exit:                                  ; preds = %59
  %62 = getelementptr inbounds nuw i8, ptr %.03553, i64 8
  %63 = load ptr, ptr %62, align 8, !tbaa !13
  tail call void %58(ptr noundef nonnull %0, ptr noundef %63) #25
  br label %64

64:                                               ; preds = %dictGetVal.exit, %55
  br i1 %.not.i, label %65, label %68

65:                                               ; preds = %64
  %66 = and i64 %25, -8
  %67 = inttoptr i64 %66 to ptr
  tail call void @zfree(ptr noundef %67) #25
  br label %68

68:                                               ; preds = %65, %64
  %69 = load i64, ptr %9, align 8, !tbaa !14
  %70 = add i64 %69, -1
  store i64 %70, ptr %9, align 8, !tbaa !14
  %.not41 = icmp eq ptr %.0.i, null
  br i1 %.not41, label %.loopexit, label %.preheader, !llvm.loop !59

.loopexit:                                        ; preds = %68, %20
  %71 = add i64 %.056, 1
  %72 = load i8, ptr %6, align 1, !tbaa !13
  %73 = icmp ne i8 %72, -1
  %74 = sext i8 %72 to i64
  %75 = and i64 %74, 4294967295
  %.0.highbits = lshr i64 %71, %75
  %76 = icmp eq i64 %.0.highbits, 0
  %77 = select i1 %73, i1 %76, i1 false
  br i1 %77, label %13, label %.critedge, !llvm.loop !60

.critedge:                                        ; preds = %13, %.loopexit, %3
  %78 = getelementptr inbounds nuw i8, ptr %0, i64 8
  %79 = getelementptr inbounds [2 x ptr], ptr %78, i64 0, i64 %5
  %80 = load ptr, ptr %79, align 8, !tbaa !11
  tail call void @zfree(ptr noundef %80) #25
  store ptr null, ptr %79, align 8, !tbaa !11
  store i8 -1, ptr %6, align 1, !tbaa !13
  %81 = getelementptr inbounds nuw i8, ptr %0, i64 24
  %82 = getelementptr inbounds [2 x i64], ptr %81, i64 0, i64 %5
  store i64 0, ptr %82, align 8, !tbaa !14
  ret i32 0
}